; ModuleID = '17/1133.c'
source_filename = "17/1133.c"
target datalayout = "e-m:e-p270:32:32-p271:32:32-p272:64:64-i64:64-f80:128-n8:16:32:64-S128"
target triple = "x86_64-pc-linux-gnu"

@.str = private unnamed_addr constant [3 x i8] c"%d\00", align 1
@.str.1 = private unnamed_addr constant [3 x i8] c"%s\00", align 1
@.str.2 = private unnamed_addr constant [4 x i8] c"%s\0A\00", align 1
@.str.3 = private unnamed_addr constant [2 x i8] c"$\00", align 1
@.str.4 = private unnamed_addr constant [2 x i8] c"?\00", align 1
@.str.5 = private unnamed_addr constant [2 x i8] c" \00", align 1
@.str.6 = private unnamed_addr constant [2 x i8] c"\0A\00", align 1

; Function Attrs: noinline nounwind uwtable
define dso_local i32 @main() #0 {
  %1 = alloca i32, align 4
  %2 = alloca i32, align 4
  %3 = alloca i32, align 4
  %4 = alloca [1000 x [105 x i8]], align 16
  %5 = alloca i32, align 4
  %6 = alloca [105 x i32], align 16
  %7 = alloca i32, align 4
  %8 = alloca i32, align 4
  store i32 0, i32* %1, align 4
  %9 = bitcast [1000 x [105 x i8]]* %4 to i8*
  call void @llvm.memset.p0i8.i64(i8* align 16 %9, i8 0, i64 105000, i1 false)
  %10 = bitcast [105 x i32]* %6 to i8*
  call void @llvm.memset.p0i8.i64(i8* align 16 %10, i8 0, i64 420, i1 false)
  %11 = call i32 (i8*, ...) @__isoc99_scanf(i8* getelementptr inbounds ([3 x i8], [3 x i8]* @.str, i64 0, i64 0), i32* %2)
  store i32 0, i32* %7, align 4
  br label %12

12:                                               ; preds = %22, %0
  %13 = load i32, i32* %7, align 4
  %14 = load i32, i32* %2, align 4
  %15 = icmp slt i32 %13, %14
  br i1 %15, label %16, label %25

16:                                               ; preds = %12
  %17 = load i32, i32* %7, align 4
  %18 = sext i32 %17 to i64
  %19 = getelementptr inbounds [1000 x [105 x i8]], [1000 x [105 x i8]]* %4, i64 0, i64 %18
  %20 = getelementptr inbounds [105 x i8], [105 x i8]* %19, i64 0, i64 0
  %21 = call i32 (i8*, ...) @__isoc99_scanf(i8* getelementptr inbounds ([3 x i8], [3 x i8]* @.str.1, i64 0, i64 0), i8* %20)
  br label %22

22:                                               ; preds = %16
  %23 = load i32, i32* %7, align 4
  %24 = add nsw i32 %23, 1
  store i32 %24, i32* %7, align 4
  br label %12

25:                                               ; preds = %12
  store i32 0, i32* %7, align 4
  br label %26

26:                                               ; preds = %174, %25
  %27 = load i32, i32* %7, align 4
  %28 = load i32, i32* %2, align 4
  %29 = icmp slt i32 %27, %28
  br i1 %29, label %30, label %177

30:                                               ; preds = %26
  store i32 0, i32* %8, align 4
  br label %31

31:                                               ; preds = %38, %30
  %32 = load i32, i32* %8, align 4
  %33 = icmp slt i32 %32, 105
  br i1 %33, label %34, label %41

34:                                               ; preds = %31
  %35 = load i32, i32* %8, align 4
  %36 = sext i32 %35 to i64
  %37 = getelementptr inbounds [105 x i32], [105 x i32]* %6, i64 0, i64 %36
  store i32 0, i32* %37, align 4
  br label %38

38:                                               ; preds = %34
  %39 = load i32, i32* %8, align 4
  %40 = add nsw i32 %39, 1
  store i32 %40, i32* %8, align 4
  br label %31

41:                                               ; preds = %31
  %42 = load i32, i32* %7, align 4
  %43 = sext i32 %42 to i64
  %44 = getelementptr inbounds [1000 x [105 x i8]], [1000 x [105 x i8]]* %4, i64 0, i64 %43
  %45 = getelementptr inbounds [105 x i8], [105 x i8]* %44, i64 0, i64 0
  %46 = call i64 @strlen(i8* %45) #4
  %47 = trunc i64 %46 to i32
  store i32 %47, i32* %3, align 4
  %48 = load i32, i32* %7, align 4
  %49 = sext i32 %48 to i64
  %50 = getelementptr inbounds [1000 x [105 x i8]], [1000 x [105 x i8]]* %4, i64 0, i64 %49
  %51 = getelementptr inbounds [105 x i8], [105 x i8]* %50, i64 0, i64 0
  %52 = call i32 (i8*, ...) @printf(i8* getelementptr inbounds ([4 x i8], [4 x i8]* @.str.2, i64 0, i64 0), i8* %51)
  %53 = load i32, i32* %3, align 4
  %54 = sub nsw i32 %53, 1
  store i32 %54, i32* %8, align 4
  br label %55

55:                                               ; preds = %118, %41
  %56 = load i32, i32* %8, align 4
  %57 = icmp sge i32 %56, 0
  br i1 %57, label %58, label %121

58:                                               ; preds = %55
  %59 = load i32, i32* %7, align 4
  %60 = sext i32 %59 to i64
  %61 = getelementptr inbounds [1000 x [105 x i8]], [1000 x [105 x i8]]* %4, i64 0, i64 %60
  %62 = load i32, i32* %8, align 4
  %63 = sext i32 %62 to i64
  %64 = getelementptr inbounds [105 x i8], [105 x i8]* %61, i64 0, i64 %63
  %65 = load i8, i8* %64, align 1
  %66 = sext i8 %65 to i32
  %67 = icmp eq i32 %66, 40
  br i1 %67, label %68, label %117

68:                                               ; preds = %58
  %69 = load i32, i32* %8, align 4
  %70 = add nsw i32 %69, 1
  store i32 %70, i32* %5, align 4
  br label %71

71:                                               ; preds = %99, %68
  %72 = load i32, i32* %5, align 4
  %73 = load i32, i32* %3, align 4
  %74 = icmp slt i32 %72, %73
  br i1 %74, label %75, label %102

75:                                               ; preds = %71
  %76 = load i32, i32* %7, align 4
  %77 = sext i32 %76 to i64
  %78 = getelementptr inbounds [1000 x [105 x i8]], [1000 x [105 x i8]]* %4, i64 0, i64 %77
  %79 = load i32, i32* %5, align 4
  %80 = sext i32 %79 to i64
  %81 = getelementptr inbounds [105 x i8], [105 x i8]* %78, i64 0, i64 %80
  %82 = load i8, i8* %81, align 1
  %83 = sext i8 %82 to i32
  %84 = icmp eq i32 %83, 41
  br i1 %84, label %85, label %98

85:                                               ; preds = %75
  %86 = load i32, i32* %7, align 4
  %87 = sext i32 %86 to i64
  %88 = getelementptr inbounds [1000 x [105 x i8]], [1000 x [105 x i8]]* %4, i64 0, i64 %87
  %89 = load i32, i32* %5, align 4
  %90 = sext i32 %89 to i64
  %91 = getelementptr inbounds [105 x i8], [105 x i8]* %88, i64 0, i64 %90
  store i8 0, i8* %91, align 1
  %92 = load i32, i32* %7, align 4
  %93 = sext i32 %92 to i64
  %94 = getelementptr inbounds [1000 x [105 x i8]], [1000 x [105 x i8]]* %4, i64 0, i64 %93
  %95 = load i32, i32* %8, align 4
  %96 = sext i32 %95 to i64
  %97 = getelementptr inbounds [105 x i8], [105 x i8]* %94, i64 0, i64 %96
  store i8 0, i8* %97, align 1
  br label %102

98:                                               ; preds = %75
  br label %99

99:                                               ; preds = %98
  %100 = load i32, i32* %5, align 4
  %101 = add nsw i32 %100, 1
  store i32 %101, i32* %5, align 4
  br label %71

102:                                              ; preds = %85, %71
  %103 = load i32, i32* %5, align 4
  %104 = load i32, i32* %3, align 4
  %105 = icmp eq i32 %103, %104
  br i1 %105, label %106, label %116

106:                                              ; preds = %102
  %107 = load i32, i32* %7, align 4
  %108 = sext i32 %107 to i64
  %109 = getelementptr inbounds [1000 x [105 x i8]], [1000 x [105 x i8]]* %4, i64 0, i64 %108
  %110 = load i32, i32* %8, align 4
  %111 = sext i32 %110 to i64
  %112 = getelementptr inbounds [105 x i8], [105 x i8]* %109, i64 0, i64 %111
  store i8 0, i8* %112, align 1
  %113 = load i32, i32* %8, align 4
  %114 = sext i32 %113 to i64
  %115 = getelementptr inbounds [105 x i32], [105 x i32]* %6, i64 0, i64 %114
  store i32 1, i32* %115, align 4
  br label %116

116:                                              ; preds = %106, %102
  br label %117

117:                                              ; preds = %116, %58
  br label %118

118:                                              ; preds = %117
  %119 = load i32, i32* %8, align 4
  %120 = add nsw i32 %119, -1
  store i32 %120, i32* %8, align 4
  br label %55

121:                                              ; preds = %55
  store i32 0, i32* %8, align 4
  br label %122

122:                                              ; preds = %141, %121
  %123 = load i32, i32* %8, align 4
  %124 = load i32, i32* %3, align 4
  %125 = icmp slt i32 %123, %124
  br i1 %125, label %126, label %144

126:                                              ; preds = %122
  %127 = load i32, i32* %7, align 4
  %128 = sext i32 %127 to i64
  %129 = getelementptr inbounds [1000 x [105 x i8]], [1000 x [105 x i8]]* %4, i64 0, i64 %128
  %130 = load i32, i32* %8, align 4
  %131 = sext i32 %130 to i64
  %132 = getelementptr inbounds [105 x i8], [105 x i8]* %129, i64 0, i64 %131
  %133 = load i8, i8* %132, align 1
  %134 = sext i8 %133 to i32
  %135 = icmp eq i32 %134, 41
  br i1 %135, label %136, label %140

136:                                              ; preds = %126
  %137 = load i32, i32* %8, align 4
  %138 = sext i32 %137 to i64
  %139 = getelementptr inbounds [105 x i32], [105 x i32]* %6, i64 0, i64 %138
  store i32 2, i32* %139, align 4
  br label %140

140:                                              ; preds = %136, %126
  br label %141

141:                                              ; preds = %140
  %142 = load i32, i32* %8, align 4
  %143 = add nsw i32 %142, 1
  store i32 %143, i32* %8, align 4
  br label %122

144:                                              ; preds = %122
  store i32 0, i32* %8, align 4
  br label %145

145:                                              ; preds = %169, %144
  %146 = load i32, i32* %8, align 4
  %147 = load i32, i32* %3, align 4
  %148 = icmp slt i32 %146, %147
  br i1 %148, label %149, label %172

149:                                              ; preds = %145
  %150 = load i32, i32* %8, align 4
  %151 = sext i32 %150 to i64
  %152 = getelementptr inbounds [105 x i32], [105 x i32]* %6, i64 0, i64 %151
  %153 = load i32, i32* %152, align 4
  %154 = icmp eq i32 %153, 1
  br i1 %154, label %155, label %157

155:                                              ; preds = %149
  %156 = call i32 (i8*, ...) @printf(i8* getelementptr inbounds ([2 x i8], [2 x i8]* @.str.3, i64 0, i64 0))
  br label %168

157:                                              ; preds = %149
  %158 = load i32, i32* %8, align 4
  %159 = sext i32 %158 to i64
  %160 = getelementptr inbounds [105 x i32], [105 x i32]* %6, i64 0, i64 %159
  %161 = load i32, i32* %160, align 4
  %162 = icmp eq i32 %161, 2
  br i1 %162, label %163, label %165

163:                                              ; preds = %157
  %164 = call i32 (i8*, ...) @printf(i8* getelementptr inbounds ([2 x i8], [2 x i8]* @.str.4, i64 0, i64 0))
  br label %167

165:                                              ; preds = %157
  %166 = call i32 (i8*, ...) @printf(i8* getelementptr inbounds ([2 x i8], [2 x i8]* @.str.5, i64 0, i64 0))
  br label %167

167:                                              ; preds = %165, %163
  br label %168

168:                                              ; preds = %167, %155
  br label %169

169:                                              ; preds = %168
  %170 = load i32, i32* %8, align 4
  %171 = add nsw i32 %170, 1
  store i32 %171, i32* %8, align 4
  br label %145

172:                                              ; preds = %145
  %173 = call i32 (i8*, ...) @printf(i8* getelementptr inbounds ([2 x i8], [2 x i8]* @.str.6, i64 0, i64 0))
  br label %174

174:                                              ; preds = %172
  %175 = load i32, i32* %7, align 4
  %176 = add nsw i32 %175, 1
  store i32 %176, i32* %7, align 4
  br label %26

177:                                              ; preds = %26
  ret i32 0
}

; Function Attrs: argmemonly nounwind willreturn
declare void @llvm.memset.p0i8.i64(i8* nocapture writeonly, i8, i64, i1 immarg) #1

declare dso_local i32 @__isoc99_scanf(i8*, ...) #2

; Function Attrs: nounwind readonly
declare dso_local i64 @strlen(i8*) #3

declare dso_local i32 @printf(i8*, ...) #2


!llvm.module.flags = !{!0}
!llvm.ident = !{!1}

!0 = !{i32 1, !"wchar_size", i32 4}
!1 = !{!"clang version 10.0.0-4ubuntu1 "}
